; Function Attrs: mustprogress nounwind uwtable
define dso_local noundef nonnull ptr @_ZN4node10BaseObject12pointer_dataEv(ptr noundef nonnull align 8 dereferenceable(32) %this) local_unnamed_addr #3 align 2 {
entry:
  %pointer_data_.i = getelementptr inbounds i8, ptr %this, i64 24
  %0 = load ptr, ptr %pointer_data_.i, align 8
  %cmp.i3.not = icmp eq ptr %0, null
  br i1 %cmp.i3.not, label %if.then, label %do.end10

if.then:                                          ; preds = %entry
  %call2 = tail call noalias noundef nonnull dereferenceable(24) ptr @_Znwm(i64 noundef 24) #20
  %self.i = getelementptr inbounds i8, ptr %call2, i64 16
  %persistent_handle_ = getelementptr inbounds i8, ptr %this, i64 8
  tail call void @llvm.memset.p0.i64(ptr noundef nonnull align 8 dereferenceable(16) %call2, i8 0, i64 16, i1 false)
  %1 = load ptr, ptr %persistent_handle_, align 8
  %cmp.i.i = icmp eq ptr %1, null
  br i1 %cmp.i.i, label %_ZNK2v814PersistentBaseINS_6ObjectEE6IsWeakEv.exit, label %if.end.i

if.end.i:                                         ; preds = %if.then
  %add.ptr.i = getelementptr inbounds i8, ptr %1, i64 11
  %2 = load i8, ptr %add.ptr.i, align 1
  %3 = and i8 %2, 3
  %cmp.i = icmp eq i8 %3, 2
  %4 = zext i1 %cmp.i to i8
  br label %_ZNK2v814PersistentBaseINS_6ObjectEE6IsWeakEv.exit

_ZNK2v814PersistentBaseINS_6ObjectEE6IsWeakEv.exit: ; preds = %if.then, %if.end.i
  %retval.i.0 = phi i8 [ %4, %if.end.i ], [ 0, %if.then ]
  %wants_weak_jsobj = getelementptr inbounds i8, ptr %call2, i64 8
  store i8 %retval.i.0, ptr %wants_weak_jsobj, align 8
  store ptr %this, ptr %self.i, align 8
  store ptr %call2, ptr %pointer_data_.i, align 8
  br label %do.end10

do.end10:                                         ; preds = %_ZNK2v814PersistentBaseINS_6ObjectEE6IsWeakEv.exit, %entry
  %5 = phi ptr [ %0, %entry ], [ %call2, %_ZNK2v814PersistentBaseINS_6ObjectEE6IsWeakEv.exit ]
  ret ptr %5
}